target datalayout = "e-m:e-p270:32:32-p271:32:32-p272:64:64-i64:64-i128:128-f80:128-n8:16:32:64-S128"
target triple = "x86_64-pc-linux-gnu"

%"class.std::__cxx11::basic_string" = type { %"struct.std::__cxx11::basic_string<char>::_Alloc_hider", i64, %union.anon }
%"struct.std::__cxx11::basic_string<char>::_Alloc_hider" = type { ptr }
%union.anon = type { i64, [8 x i8] }
%class.Type = type { i32, ptr, i32, %"class.std::vector.8", %"class.std::vector.13", i32, i8, i8, i8, i8, i8, %"class.std::vector.18", %"class.std::vector.23" }
%"class.std::vector.8" = type { %"struct.std::_Vector_base.9" }
%"struct.std::_Vector_base.9" = type { %"struct.std::_Vector_base<unsigned int, std::allocator<unsigned int>>::_Vector_impl" }
%"struct.std::_Vector_base<unsigned int, std::allocator<unsigned int>>::_Vector_impl" = type { %"struct.std::_Vector_base<unsigned int, std::allocator<unsigned int>>::_Vector_impl_data" }
%"struct.std::_Vector_base<unsigned int, std::allocator<unsigned int>>::_Vector_impl_data" = type { ptr, ptr, ptr }
%"class.std::vector.13" = type { %"struct.std::_Vector_base.14" }
%"struct.std::_Vector_base.14" = type { %"struct.std::_Vector_base<const Type *, std::allocator<const Type *>>::_Vector_impl" }
%"struct.std::_Vector_base<const Type *, std::allocator<const Type *>>::_Vector_impl" = type { %"struct.std::_Vector_base<const Type *, std::allocator<const Type *>>::_Vector_impl_data" }
%"struct.std::_Vector_base<const Type *, std::allocator<const Type *>>::_Vector_impl_data" = type { ptr, ptr, ptr }
%"class.std::vector.18" = type { %"struct.std::_Vector_base.19" }
%"struct.std::_Vector_base.19" = type { %"struct.std::_Vector_base<CVQualifiers, std::allocator<CVQualifiers>>::_Vector_impl" }
%"struct.std::_Vector_base<CVQualifiers, std::allocator<CVQualifiers>>::_Vector_impl" = type { %"struct.std::_Vector_base<CVQualifiers, std::allocator<CVQualifiers>>::_Vector_impl_data" }
%"struct.std::_Vector_base<CVQualifiers, std::allocator<CVQualifiers>>::_Vector_impl_data" = type { ptr, ptr, ptr }
%"class.std::vector.23" = type { %"struct.std::_Vector_base.24" }
%"struct.std::_Vector_base.24" = type { %"struct.std::_Vector_base<int, std::allocator<int>>::_Vector_impl" }
%"struct.std::_Vector_base<int, std::allocator<int>>::_Vector_impl" = type { %"struct.std::_Vector_base<int, std::allocator<int>>::_Vector_impl_data" }
%"struct.std::_Vector_base<int, std::allocator<int>>::_Vector_impl_data" = type { ptr, ptr, ptr }

@.str.47 = private unnamed_addr constant [2 x i8] c"{\00", align 1
@.str.68 = private unnamed_addr constant [2 x i8] c"}\00", align 1
@.str.72 = private unnamed_addr constant [5 x i8] c"%lld\00", align 1
@.str.73 = private unnamed_addr constant [5 x i8] c"%llu\00", align 1
@.str.74 = private unnamed_addr constant [3 x i8] c"%d\00", align 1
@.str.75 = private unnamed_addr constant [3 x i8] c"%u\00", align 1
@.str.76 = private unnamed_addr constant [6 x i8] c"0x%0x\00", align 1
@.str.77 = private unnamed_addr constant [3 x i8] c", \00", align 1

; Function Attrs: mustprogress nounwind uwtable
define linkonce_odr dso_local noundef nonnull align 8 dereferenceable(8) ptr @_ZNKSt6vectorIPK4TypeSaIS2_EEixEm(ptr noundef nonnull align 8 dereferenceable(24) %0, i64 noundef %1) #4 comdat align 2 {
  %3 = alloca ptr, align 8
  %4 = alloca i64, align 8
  store ptr %0, ptr %3, align 8
  store i64 %1, ptr %4, align 8
  %5 = load ptr, ptr %3, align 8
  %6 = getelementptr inbounds %"struct.std::_Vector_base.14", ptr %5, i32 0, i32 0
  %7 = getelementptr inbounds %"struct.std::_Vector_base<const Type *, std::allocator<const Type *>>::_Vector_impl_data", ptr %6, i32 0, i32 0
  %8 = load ptr, ptr %7, align 8
  %9 = load i64, ptr %4, align 8
  %10 = getelementptr inbounds ptr, ptr %8, i64 %9
  ret ptr %10
}

; Function Attrs: mustprogress nounwind uwtable
define linkonce_odr dso_local noundef i64 @_ZNKSt6vectorIPK4TypeSaIS2_EE4sizeEv(ptr noundef nonnull align 8 dereferenceable(24) %0) #4 comdat align 2 {
  %2 = alloca ptr, align 8
  store ptr %0, ptr %2, align 8
  %3 = load ptr, ptr %2, align 8
  %4 = getelementptr inbounds %"struct.std::_Vector_base.14", ptr %3, i32 0, i32 0
  %5 = getelementptr inbounds %"struct.std::_Vector_base<const Type *, std::allocator<const Type *>>::_Vector_impl_data", ptr %4, i32 0, i32 1
  %6 = load ptr, ptr %5, align 8
  %7 = getelementptr inbounds %"struct.std::_Vector_base.14", ptr %3, i32 0, i32 0
  %8 = getelementptr inbounds %"struct.std::_Vector_base<const Type *, std::allocator<const Type *>>::_Vector_impl_data", ptr %7, i32 0, i32 0
  %9 = load ptr, ptr %8, align 8
  %10 = ptrtoint ptr %6 to i64
  %11 = ptrtoint ptr %9 to i64
  %12 = sub i64 %10, %11
  %13 = sdiv exact i64 %12, 8
  ret i64 %13
}

; Function Attrs: mustprogress nounwind uwtable
define dso_local noundef zeroext i1 @_ZNK4Type9is_signedEv(ptr noundef nonnull align 8 dereferenceable(136) %0) #4 align 2 {
  %2 = alloca i1, align 1
  %3 = alloca ptr, align 8
  store ptr %0, ptr %3, align 8
  %4 = load ptr, ptr %3, align 8
  %5 = getelementptr inbounds %class.Type, ptr %4, i32 0, i32 0
  %6 = load i32, ptr %5, align 8
  switch i32 %6, label %7 [
    i32 0, label %8
  ]

7:                                                ; preds = %1
  store i1 false, ptr %2, align 1
  br label %15

8:                                                ; preds = %1
  %9 = getelementptr inbounds %class.Type, ptr %4, i32 0, i32 2
  %10 = load i32, ptr %9, align 8
  switch i32 %10, label %12 [
    i32 6, label %11
    i32 7, label %11
    i32 8, label %11
    i32 9, label %11
    i32 11, label %11
    i32 13, label %11
  ]

11:                                               ; preds = %8, %8, %8, %8, %8, %8
  store i1 false, ptr %2, align 1
  br label %15

12:                                               ; preds = %8
  br label %13

13:                                               ; preds = %12
  br label %14

14:                                               ; preds = %13
  store i1 true, ptr %2, align 1
  br label %15

15:                                               ; preds = %14, %11, %7
  %16 = load i1, ptr %2, align 1
  ret i1 %16
}

; Function Attrs: mustprogress uwtable
define dso_local void @_ZNK4Type16printf_directiveB5cxx11Ev(ptr dead_on_unwind noalias writable sret(%"class.std::__cxx11::basic_string") align 8 %0, ptr noundef nonnull align 8 dereferenceable(136) %1) #5 align 2 personality ptr @__gxx_personality_v0 {
  %3 = alloca ptr, align 8
  %4 = alloca ptr, align 8
  %5 = alloca i1, align 1
  %6 = alloca i64, align 8
  %7 = alloca ptr, align 8
  %8 = alloca i32, align 4
  %9 = alloca %"class.std::__cxx11::basic_string", align 8
  store ptr %0, ptr %3, align 8
  store ptr %1, ptr %4, align 8
  %10 = load ptr, ptr %4, align 8
  store i1 false, ptr %5, align 1
  call void @_ZNSt7__cxx1112basic_stringIcSt11char_traitsIcESaIcEEC1Ev(ptr noundef nonnull align 8 dereferenceable(32) %0) #3
  %11 = getelementptr inbounds %class.Type, ptr %10, i32 0, i32 0
  %12 = load i32, ptr %11, align 8
  switch i32 %12, label %75 [
    i32 0, label %13
    i32 1, label %40
    i32 2, label %43
    i32 3, label %43
  ]

13:                                               ; preds = %2
  %14 = invoke noundef i64 @_ZNK4Type11SizeInBytesEv(ptr noundef nonnull align 8 dereferenceable(136) %10)
          to label %15 unwind label %26

15:                                               ; preds = %13
  %16 = icmp uge i64 %14, 8
  br i1 %16, label %17, label %30

17:                                               ; preds = %15
  %18 = call noundef zeroext i1 @_ZNK4Type9is_signedEv(ptr noundef nonnull align 8 dereferenceable(136) %10)
  br i1 %18, label %19, label %20

19:                                               ; preds = %17
  br label %21

20:                                               ; preds = %17
  br label %21

21:                                               ; preds = %20, %19
  %22 = phi ptr [ @.str.72, %19 ], [ @.str.73, %20 ]
  %23 = getelementptr inbounds [5 x i8], ptr %22, i64 0, i64 0
  %24 = invoke noundef nonnull align 8 dereferenceable(32) ptr @_ZNSt7__cxx1112basic_stringIcSt11char_traitsIcESaIcEEaSEPKc(ptr noundef nonnull align 8 dereferenceable(32) %0, ptr noundef %23)
          to label %25 unwind label %26

25:                                               ; preds = %21
  br label %39

26:                                               ; preds = %72, %57, %54, %43, %40, %34, %21, %13
  %27 = landingpad { ptr, i32 }
          cleanup
  %28 = extractvalue { ptr, i32 } %27, 0
  store ptr %28, ptr %7, align 8
  %29 = extractvalue { ptr, i32 } %27, 1
  store i32 %29, ptr %8, align 4
  br label %79

30:                                               ; preds = %15
  %31 = call noundef zeroext i1 @_ZNK4Type9is_signedEv(ptr noundef nonnull align 8 dereferenceable(136) %10)
  br i1 %31, label %32, label %33

32:                                               ; preds = %30
  br label %34

33:                                               ; preds = %30
  br label %34

34:                                               ; preds = %33, %32
  %35 = phi ptr [ @.str.74, %32 ], [ @.str.75, %33 ]
  %36 = getelementptr inbounds [3 x i8], ptr %35, i64 0, i64 0
  %37 = invoke noundef nonnull align 8 dereferenceable(32) ptr @_ZNSt7__cxx1112basic_stringIcSt11char_traitsIcESaIcEEaSEPKc(ptr noundef nonnull align 8 dereferenceable(32) %0, ptr noundef %36)
          to label %38 unwind label %26

38:                                               ; preds = %34
  br label %39

39:                                               ; preds = %38, %25
  br label %75

40:                                               ; preds = %2
  %41 = invoke noundef nonnull align 8 dereferenceable(32) ptr @_ZNSt7__cxx1112basic_stringIcSt11char_traitsIcESaIcEEaSEPKc(ptr noundef nonnull align 8 dereferenceable(32) %0, ptr noundef @.str.76)
          to label %42 unwind label %26

42:                                               ; preds = %40
  br label %75

43:                                               ; preds = %2, %2
  %44 = invoke noundef nonnull align 8 dereferenceable(32) ptr @_ZNSt7__cxx1112basic_stringIcSt11char_traitsIcESaIcEEaSEPKc(ptr noundef nonnull align 8 dereferenceable(32) %0, ptr noundef @.str.47)
          to label %45 unwind label %26

45:                                               ; preds = %43
  store i64 0, ptr %6, align 8
  br label %46

46:                                               ; preds = %65, %45
  %47 = load i64, ptr %6, align 8
  %48 = getelementptr inbounds %class.Type, ptr %10, i32 0, i32 4
  %49 = call noundef i64 @_ZNKSt6vectorIPK4TypeSaIS2_EE4sizeEv(ptr noundef nonnull align 8 dereferenceable(24) %48) #3
  %50 = icmp ult i64 %47, %49
  br i1 %50, label %51, label %72

51:                                               ; preds = %46
  %52 = load i64, ptr %6, align 8
  %53 = icmp ugt i64 %52, 0
  br i1 %53, label %54, label %57

54:                                               ; preds = %51
  %55 = invoke noundef nonnull align 8 dereferenceable(32) ptr @_ZNSt7__cxx1112basic_stringIcSt11char_traitsIcESaIcEEpLEPKc(ptr noundef nonnull align 8 dereferenceable(32) %0, ptr noundef @.str.77)
          to label %56 unwind label %26

56:                                               ; preds = %54
  br label %57

57:                                               ; preds = %56, %51
  %58 = getelementptr inbounds %class.Type, ptr %10, i32 0, i32 4
  %59 = load i64, ptr %6, align 8
  %60 = call noundef nonnull align 8 dereferenceable(8) ptr @_ZNKSt6vectorIPK4TypeSaIS2_EEixEm(ptr noundef nonnull align 8 dereferenceable(24) %58, i64 noundef %59) #3
  %61 = load ptr, ptr %60, align 8
  invoke void @_ZNK4Type16printf_directiveB5cxx11Ev(ptr dead_on_unwind writable sret(%"class.std::__cxx11::basic_string") align 8 %9, ptr noundef nonnull align 8 dereferenceable(136) %61)
          to label %62 unwind label %26

62:                                               ; preds = %57
  %63 = invoke noundef nonnull align 8 dereferenceable(32) ptr @_ZNSt7__cxx1112basic_stringIcSt11char_traitsIcESaIcEEpLERKS4_(ptr noundef nonnull align 8 dereferenceable(32) %0, ptr noundef nonnull align 8 dereferenceable(32) %9)
          to label %64 unwind label %68

64:                                               ; preds = %62
  call void @_ZNSt7__cxx1112basic_stringIcSt11char_traitsIcESaIcEED1Ev(ptr noundef nonnull align 8 dereferenceable(32) %9) #3
  br label %65

65:                                               ; preds = %64
  %66 = load i64, ptr %6, align 8
  %67 = add i64 %66, 1
  store i64 %67, ptr %6, align 8
  br label %46, !llvm.loop !50

68:                                               ; preds = %62
  %69 = landingpad { ptr, i32 }
          cleanup
  %70 = extractvalue { ptr, i32 } %69, 0
  store ptr %70, ptr %7, align 8
  %71 = extractvalue { ptr, i32 } %69, 1
  store i32 %71, ptr %8, align 4
  call void @_ZNSt7__cxx1112basic_stringIcSt11char_traitsIcESaIcEED1Ev(ptr noundef nonnull align 8 dereferenceable(32) %9) #3
  br label %79

72:                                               ; preds = %46
  %73 = invoke noundef nonnull align 8 dereferenceable(32) ptr @_ZNSt7__cxx1112basic_stringIcSt11char_traitsIcESaIcEEpLEPKc(ptr noundef nonnull align 8 dereferenceable(32) %0, ptr noundef @.str.68)
          to label %74 unwind label %26

74:                                               ; preds = %72
  br label %75

75:                                               ; preds = %74, %42, %39, %2
  store i1 true, ptr %5, align 1
  %76 = load i1, ptr %5, align 1
  br i1 %76, label %78, label %77

77:                                               ; preds = %75
  call void @_ZNSt7__cxx1112basic_stringIcSt11char_traitsIcESaIcEED1Ev(ptr noundef nonnull align 8 dereferenceable(32) %0) #3
  br label %78

78:                                               ; preds = %77, %75
  ret void

79:                                               ; preds = %68, %26
  call void @_ZNSt7__cxx1112basic_stringIcSt11char_traitsIcESaIcEED1Ev(ptr noundef nonnull align 8 dereferenceable(32) %0) #3
  br label %80

80:                                               ; preds = %79
  %81 = load ptr, ptr %7, align 8
  %82 = load i32, ptr %8, align 4
  %83 = insertvalue { ptr, i32 } poison, ptr %81, 0
  %84 = insertvalue { ptr, i32 } %83, i32 %82, 1
  resume { ptr, i32 } %84
}