; Function Attrs: mustprogress uwtable
define dso_local void @_ZNK4Type16printf_directiveB5cxx11Ev(ptr dead_on_unwind noalias nonnull writable sret(%"class.std::__cxx11::basic_string") align 8 %0, ptr nocapture noundef nonnull readonly align 8 dereferenceable(136) %1) local_unnamed_addr #4 align 2 personality ptr @__gxx_personality_v0 {
  %3 = alloca %"class.std::__cxx11::basic_string", align 8
  tail call void @_ZNSt7__cxx1112basic_stringIcSt11char_traitsIcESaIcEEC1Ev(ptr noundef nonnull align 8 dereferenceable(32) %0) #23
  %4 = load i32, ptr %1, align 8
  switch i32 %4, label %51 [
    i32 0, label %5
    i32 1, label %_ZNK4Type9is_signedEv.exit.invoke
    i32 2, label %24
    i32 3, label %24
  ]

5:                                                ; preds = %2
  %6 = invoke noundef i64 @_ZNK4Type11SizeInBytesEv(ptr noundef nonnull align 8 dereferenceable(136) %1)
          to label %7 unwind label %.loopexit.split-lp

7:                                                ; preds = %5
  %8 = icmp ugt i64 %6, 7
  %9 = load i32, ptr %1, align 8
  %cond.i = icmp eq i32 %9, 0
  br i1 %8, label %10, label %19

10:                                               ; preds = %7
  br i1 %cond.i, label %11, label %_ZNK4Type9is_signedEv.exit.invoke

11:                                               ; preds = %10
  %12 = getelementptr inbounds i8, ptr %1, i64 16
  %13 = load i32, ptr %12, align 8
  %switch.tableidx = add i32 %13, -6
  %14 = icmp ult i32 %switch.tableidx, 8
  br i1 %14, label %switch.lookup, label %_ZNK4Type9is_signedEv.exit.invoke

switch.lookup:                                    ; preds = %11
  %15 = zext nneg i32 %switch.tableidx to i64
  %switch.gep = getelementptr inbounds [8 x ptr], ptr @switch.table._ZNK4Type16printf_directiveB5cxx11Ev, i64 0, i64 %15
  br label %_ZNK4Type9is_signedEv.exit.invoke.sink.split

switch.lookup18:                                  ; preds = %20
  %16 = zext nneg i32 %switch.tableidx19 to i64
  %switch.gep20 = getelementptr inbounds [8 x ptr], ptr @switch.table._ZNK4Type16printf_directiveB5cxx11Ev.1, i64 0, i64 %16
  br label %_ZNK4Type9is_signedEv.exit.invoke.sink.split

_ZNK4Type9is_signedEv.exit.invoke.sink.split:     ; preds = %switch.lookup, %switch.lookup18
  %switch.gep20.sink = phi ptr [ %switch.gep20, %switch.lookup18 ], [ %switch.gep, %switch.lookup ]
  %switch.load21 = load ptr, ptr %switch.gep20.sink, align 8
  br label %_ZNK4Type9is_signedEv.exit.invoke

_ZNK4Type9is_signedEv.exit.invoke:                ; preds = %_ZNK4Type9is_signedEv.exit.invoke.sink.split, %19, %20, %10, %11, %2
  %17 = phi ptr [ @.str.74, %20 ], [ @.str.76, %2 ], [ @.str.72, %11 ], [ @.str.73, %10 ], [ @.str.75, %19 ], [ %switch.load21, %_ZNK4Type9is_signedEv.exit.invoke.sink.split ]
  %18 = invoke noundef nonnull align 8 dereferenceable(32) ptr @_ZNSt7__cxx1112basic_stringIcSt11char_traitsIcESaIcEEaSEPKc(ptr noundef nonnull align 8 dereferenceable(32) %0, ptr noundef nonnull %17)
          to label %51 unwind label %.loopexit.split-lp

.loopexit:                                        ; preds = %31, %33
  %lpad.loopexit = landingpad { ptr, i32 }
          cleanup
  br label %52

.loopexit.split-lp:                               ; preds = %_ZNK4Type9is_signedEv.exit.invoke, %5, %24, %._crit_edge
  %lpad.loopexit.split-lp = landingpad { ptr, i32 }
          cleanup
  br label %52

19:                                               ; preds = %7
  br i1 %cond.i, label %20, label %_ZNK4Type9is_signedEv.exit.invoke

20:                                               ; preds = %19
  %21 = getelementptr inbounds i8, ptr %1, i64 16
  %22 = load i32, ptr %21, align 8
  %switch.tableidx19 = add i32 %22, -6
  %23 = icmp ult i32 %switch.tableidx19, 8
  br i1 %23, label %switch.lookup18, label %_ZNK4Type9is_signedEv.exit.invoke

24:                                               ; preds = %2, %2
  %25 = invoke noundef nonnull align 8 dereferenceable(32) ptr @_ZNSt7__cxx1112basic_stringIcSt11char_traitsIcESaIcEEaSEPKc(ptr noundef nonnull align 8 dereferenceable(32) %0, ptr noundef nonnull @.str.47)
          to label %.preheader unwind label %.loopexit.split-lp

.preheader:                                       ; preds = %24
  %26 = getelementptr inbounds i8, ptr %1, i64 48
  %27 = getelementptr inbounds i8, ptr %1, i64 56
  %28 = load ptr, ptr %27, align 8
  %29 = load ptr, ptr %26, align 8
  %.not16 = icmp eq ptr %28, %29
  br i1 %.not16, label %._crit_edge, label %.lr.ph

.lr.ph:                                           ; preds = %.preheader, %39
  %30 = phi ptr [ %42, %39 ], [ %29, %.preheader ]
  %.0815 = phi i64 [ %40, %39 ], [ 0, %.preheader ]
  %.not = icmp eq i64 %.0815, 0
  br i1 %.not, label %33, label %31

31:                                               ; preds = %.lr.ph
  %32 = invoke noundef nonnull align 8 dereferenceable(32) ptr @_ZNSt7__cxx1112basic_stringIcSt11char_traitsIcESaIcEEpLEPKc(ptr noundef nonnull align 8 dereferenceable(32) %0, ptr noundef nonnull @.str.77)
          to label %._crit_edge17 unwind label %.loopexit

._crit_edge17:                                    ; preds = %31
  %.pre = load ptr, ptr %26, align 8
  br label %33

33:                                               ; preds = %._crit_edge17, %.lr.ph
  %34 = phi ptr [ %.pre, %._crit_edge17 ], [ %30, %.lr.ph ]
  %35 = getelementptr inbounds ptr, ptr %34, i64 %.0815
  %36 = load ptr, ptr %35, align 8
  invoke void @_ZNK4Type16printf_directiveB5cxx11Ev(ptr dead_on_unwind nonnull writable sret(%"class.std::__cxx11::basic_string") align 8 %3, ptr noundef nonnull align 8 dereferenceable(136) %36)
          to label %37 unwind label %.loopexit

37:                                               ; preds = %33
  %38 = invoke noundef nonnull align 8 dereferenceable(32) ptr @_ZNSt7__cxx1112basic_stringIcSt11char_traitsIcESaIcEEpLERKS4_(ptr noundef nonnull align 8 dereferenceable(32) %0, ptr noundef nonnull align 8 dereferenceable(32) %3)
          to label %39 unwind label %48

39:                                               ; preds = %37
  call void @_ZNSt7__cxx1112basic_stringIcSt11char_traitsIcESaIcEED1Ev(ptr noundef nonnull align 8 dereferenceable(32) %3) #23
  %40 = add nuw i64 %.0815, 1
  %41 = load ptr, ptr %27, align 8
  %42 = load ptr, ptr %26, align 8
  %43 = ptrtoint ptr %41 to i64
  %44 = ptrtoint ptr %42 to i64
  %45 = sub i64 %43, %44
  %46 = ashr exact i64 %45, 3
  %47 = icmp ult i64 %40, %46
  br i1 %47, label %.lr.ph, label %._crit_edge, !llvm.loop !53

48:                                               ; preds = %37
  %49 = landingpad { ptr, i32 }
          cleanup
  call void @_ZNSt7__cxx1112basic_stringIcSt11char_traitsIcESaIcEED1Ev(ptr noundef nonnull align 8 dereferenceable(32) %3) #23
  br label %52

._crit_edge:                                      ; preds = %39, %.preheader
  %50 = invoke noundef nonnull align 8 dereferenceable(32) ptr @_ZNSt7__cxx1112basic_stringIcSt11char_traitsIcESaIcEEpLEPKc(ptr noundef nonnull align 8 dereferenceable(32) %0, ptr noundef nonnull @.str.68)
          to label %51 unwind label %.loopexit.split-lp

51:                                               ; preds = %_ZNK4Type9is_signedEv.exit.invoke, %2, %._crit_edge
  ret void

52:                                               ; preds = %.loopexit, %.loopexit.split-lp, %48
  %.pn = phi { ptr, i32 } [ %49, %48 ], [ %lpad.loopexit, %.loopexit ], [ %lpad.loopexit.split-lp, %.loopexit.split-lp ]
  call void @_ZNSt7__cxx1112basic_stringIcSt11char_traitsIcESaIcEED1Ev(ptr noundef nonnull align 8 dereferenceable(32) %0) #23
  resume { ptr, i32 } %.pn
}